; Function Attrs: mustprogress uwtable
define hidden void @_ZN11hb_buffer_t24guess_segment_propertiesEv(ptr nocapture noundef nonnull align 8 dereferenceable(220) %0) local_unnamed_addr #5 align 2 {
  %2 = getelementptr inbounds i8, ptr %0, i64 48
  %3 = getelementptr inbounds i8, ptr %0, i64 52
  %4 = load i32, ptr %3, align 4
  %5 = icmp eq i32 %4, 0
  br i1 %5, label %.preheader, label %.loopexit

.preheader:                                       ; preds = %1
  %6 = getelementptr inbounds i8, ptr %0, i64 88
  %7 = load i32, ptr %6, align 8
  %.not = icmp eq i32 %7, 0
  br i1 %.not, label %.loopexit, label %.lr.ph

.lr.ph:                                           ; preds = %.preheader
  %8 = getelementptr inbounds i8, ptr %0, i64 16
  %9 = getelementptr inbounds i8, ptr %0, i64 104
  br label %10

10:                                               ; preds = %.lr.ph, %21
  %indvars.iv = phi i64 [ 0, %.lr.ph ], [ %indvars.iv.next, %21 ]
  %11 = load ptr, ptr %8, align 8
  %12 = load ptr, ptr %9, align 8
  %13 = getelementptr inbounds %struct.hb_glyph_info_t, ptr %12, i64 %indvars.iv
  %14 = load i32, ptr %13, align 4
  %15 = getelementptr inbounds i8, ptr %11, i64 56
  %16 = load ptr, ptr %15, align 8
  %17 = getelementptr inbounds i8, ptr %11, i64 120
  %18 = load ptr, ptr %17, align 8
  %19 = tail call noundef i32 %16(ptr noundef nonnull %11, i32 noundef %14, ptr noundef %18)
  switch i32 %19, label %20 [
    i32 1517976186, label %21
    i32 1517910393, label %21
    i32 1516858984, label %21
  ]

20:                                               ; preds = %10
  store i32 %19, ptr %3, align 4
  br label %.loopexit

21:                                               ; preds = %10, %10, %10
  %indvars.iv.next = add nuw nsw i64 %indvars.iv, 1
  %22 = load i32, ptr %6, align 8
  %23 = zext i32 %22 to i64
  %24 = icmp ult i64 %indvars.iv.next, %23
  br i1 %24, label %10, label %.loopexit, !llvm.loop !34

.loopexit:                                        ; preds = %21, %.preheader, %20, %1
  %25 = load i32, ptr %2, align 8
  %26 = icmp eq i32 %25, 0
  br i1 %26, label %27, label %31

27:                                               ; preds = %.loopexit
  %28 = load i32, ptr %3, align 4
  %29 = tail call i32 @hb_script_get_horizontal_direction(i32 noundef %28)
  %30 = icmp eq i32 %29, 0
  %spec.store.select = select i1 %30, i32 4, i32 %29
  store i32 %spec.store.select, ptr %2, align 8
  br label %31

31:                                               ; preds = %27, %.loopexit
  %32 = getelementptr inbounds i8, ptr %0, i64 56
  %33 = load ptr, ptr %32, align 8
  %34 = icmp eq ptr %33, null
  br i1 %34, label %35, label %37

35:                                               ; preds = %31
  %36 = tail call ptr @hb_language_get_default()
  store ptr %36, ptr %32, align 8
  br label %37

37:                                               ; preds = %35, %31
  ret void
}